; Function Attrs: nounwind uwtable
define ptr @l_Array_filterMapM___at_Lean_Compiler_LCNF_UnreachableBranches_elimDead_go___spec__4___boxed(ptr noundef %0, ptr noundef %1, ptr noundef %2, ptr noundef %3, ptr noundef %4, ptr noundef %5, ptr noundef %6, ptr noundef %7, ptr noundef %8, ptr noundef %9, ptr noundef %10, ptr noundef %11) local_unnamed_addr #1 {
  %13 = getelementptr i8, ptr %1, i64 8
  %.val41 = load i64, ptr %13, align 8, !tbaa !9
  %14 = ptrtoint ptr %1 to i64
  %15 = and i64 %14, 1
  %.not = icmp eq i64 %15, 0
  br i1 %.not, label %16, label %lean_dec.exit27

16:                                               ; preds = %12
  %17 = load i32, ptr %1, align 4, !tbaa !4
  %18 = icmp sgt i32 %17, 1
  br i1 %18, label %19, label %21, !prof !13

19:                                               ; preds = %16
  %20 = add nsw i32 %17, -1
  store i32 %20, ptr %1, align 4, !tbaa !4
  br label %lean_dec.exit27

21:                                               ; preds = %16
  %.not.i = icmp eq i32 %17, 0
  br i1 %.not.i, label %lean_dec.exit27, label %22

22:                                               ; preds = %21
  tail call void @lean_dec_ref_cold(ptr noundef nonnull %1) #8
  br label %lean_dec.exit27

lean_dec.exit27:                                  ; preds = %22, %21, %19, %12
  %23 = getelementptr i8, ptr %2, i64 8
  %.val40 = load i64, ptr %23, align 8, !tbaa !9
  %24 = ptrtoint ptr %2 to i64
  %25 = and i64 %24, 1
  %.not42 = icmp eq i64 %25, 0
  br i1 %.not42, label %26, label %lean_dec.exit26

26:                                               ; preds = %lean_dec.exit27
  %27 = load i32, ptr %2, align 4, !tbaa !4
  %28 = icmp sgt i32 %27, 1
  br i1 %28, label %29, label %31, !prof !13

29:                                               ; preds = %26
  %30 = add nsw i32 %27, -1
  store i32 %30, ptr %2, align 4, !tbaa !4
  br label %lean_dec.exit26

31:                                               ; preds = %26
  %.not.i28 = icmp eq i32 %27, 0
  br i1 %.not.i28, label %lean_dec.exit26, label %32

32:                                               ; preds = %31
  tail call void @lean_dec_ref_cold(ptr noundef nonnull %2) #8
  br label %lean_dec.exit26

lean_dec.exit26:                                  ; preds = %32, %31, %29, %lean_dec.exit27
  %33 = getelementptr i8, ptr %3, i64 8
  %.val = load i64, ptr %33, align 8, !tbaa !9
  %34 = ptrtoint ptr %3 to i64
  %35 = and i64 %34, 1
  %.not43 = icmp eq i64 %35, 0
  br i1 %.not43, label %36, label %lean_dec.exit25

36:                                               ; preds = %lean_dec.exit26
  %37 = load i32, ptr %3, align 4, !tbaa !4
  %38 = icmp sgt i32 %37, 1
  br i1 %38, label %39, label %41, !prof !13

39:                                               ; preds = %36
  %40 = add nsw i32 %37, -1
  store i32 %40, ptr %3, align 4, !tbaa !4
  br label %lean_dec.exit25

41:                                               ; preds = %36
  %.not.i30 = icmp eq i32 %37, 0
  br i1 %.not.i30, label %lean_dec.exit25, label %42

42:                                               ; preds = %41
  tail call void @lean_dec_ref_cold(ptr noundef nonnull %3) #8
  br label %lean_dec.exit25

lean_dec.exit25:                                  ; preds = %42, %41, %39, %lean_dec.exit26
  %43 = tail call ptr @l_Array_filterMapM___at_Lean_Compiler_LCNF_UnreachableBranches_elimDead_go___spec__4(ptr noundef %0, i64 noundef %.val41, i64 noundef %.val40, i64 noundef %.val, ptr noundef %4, ptr noundef %5, ptr noundef %6, ptr noundef %7, ptr noundef %8, ptr noundef %9, ptr noundef %10, ptr noundef %11)
  %44 = ptrtoint ptr %6 to i64
  %45 = and i64 %44, 1
  %.not44 = icmp eq i64 %45, 0
  br i1 %.not44, label %46, label %lean_dec.exit24

46:                                               ; preds = %lean_dec.exit25
  %47 = load i32, ptr %6, align 4, !tbaa !4
  %48 = icmp sgt i32 %47, 1
  br i1 %48, label %49, label %51, !prof !13

49:                                               ; preds = %46
  %50 = add nsw i32 %47, -1
  store i32 %50, ptr %6, align 4, !tbaa !4
  br label %lean_dec.exit24

51:                                               ; preds = %46
  %.not.i32 = icmp eq i32 %47, 0
  br i1 %.not.i32, label %lean_dec.exit24, label %52

52:                                               ; preds = %51
  tail call void @lean_dec_ref_cold(ptr noundef nonnull %6) #8
  br label %lean_dec.exit24

lean_dec.exit24:                                  ; preds = %52, %51, %49, %lean_dec.exit25
  %53 = ptrtoint ptr %5 to i64
  %54 = and i64 %53, 1
  %.not45 = icmp eq i64 %54, 0
  br i1 %.not45, label %55, label %lean_dec.exit23

55:                                               ; preds = %lean_dec.exit24
  %56 = load i32, ptr %5, align 4, !tbaa !4
  %57 = icmp sgt i32 %56, 1
  br i1 %57, label %58, label %60, !prof !13

58:                                               ; preds = %55
  %59 = add nsw i32 %56, -1
  store i32 %59, ptr %5, align 4, !tbaa !4
  br label %lean_dec.exit23

60:                                               ; preds = %55
  %.not.i34 = icmp eq i32 %56, 0
  br i1 %.not.i34, label %lean_dec.exit23, label %61

61:                                               ; preds = %60
  tail call void @lean_dec_ref_cold(ptr noundef nonnull %5) #8
  br label %lean_dec.exit23

lean_dec.exit23:                                  ; preds = %61, %60, %58, %lean_dec.exit24
  %62 = ptrtoint ptr %4 to i64
  %63 = and i64 %62, 1
  %.not46 = icmp eq i64 %63, 0
  br i1 %.not46, label %64, label %lean_dec.exit22

64:                                               ; preds = %lean_dec.exit23
  %65 = load i32, ptr %4, align 4, !tbaa !4
  %66 = icmp sgt i32 %65, 1
  br i1 %66, label %67, label %69, !prof !13

67:                                               ; preds = %64
  %68 = add nsw i32 %65, -1
  store i32 %68, ptr %4, align 4, !tbaa !4
  br label %lean_dec.exit22

69:                                               ; preds = %64
  %.not.i36 = icmp eq i32 %65, 0
  br i1 %.not.i36, label %lean_dec.exit22, label %70

70:                                               ; preds = %69
  tail call void @lean_dec_ref_cold(ptr noundef nonnull %4) #8
  br label %lean_dec.exit22

lean_dec.exit22:                                  ; preds = %70, %69, %67, %lean_dec.exit23
  %71 = ptrtoint ptr %0 to i64
  %72 = and i64 %71, 1
  %.not47 = icmp eq i64 %72, 0
  br i1 %.not47, label %73, label %lean_dec.exit

73:                                               ; preds = %lean_dec.exit22
  %74 = load i32, ptr %0, align 4, !tbaa !4
  %75 = icmp sgt i32 %74, 1
  br i1 %75, label %76, label %78, !prof !13

76:                                               ; preds = %73
  %77 = add nsw i32 %74, -1
  store i32 %77, ptr %0, align 4, !tbaa !4
  br label %lean_dec.exit

78:                                               ; preds = %73
  %.not.i38 = icmp eq i32 %74, 0
  br i1 %.not.i38, label %lean_dec.exit, label %79

79:                                               ; preds = %78
  tail call void @lean_dec_ref_cold(ptr noundef nonnull %0) #8
  br label %lean_dec.exit

lean_dec.exit:                                    ; preds = %79, %78, %76, %lean_dec.exit22
  ret ptr %43
}